(i__main__
Document
p0
(dp1
S'posInHistory'
p2
I7
sS'pageHistory'
p3
(lp4
I0
aI1
aI0
aI2
aI3
aI4
aI5
aI0
asS'filename'
p5
S'TheRedLetter'
p6
sS'current'
p7
I0
sS'lastAction'
p8
S''
p9
sS'pages'
p10
(lp11
(lp12
S'#The Red Letter#                                                                '
p13
aS'                                                                                '
p14
aS'After a long hard day at your boring office job you arrive at home. Before you  '
p15
aS'walk into your house you see a letter in your mailbox, an unusual occurrence as '
p16
aS'bill day is Thursday not Monday.                                                '
p17
aS'                                                                                '
p18
aS'You go up to the mailbox and see that there is a little red letter, quite       '
p19
aS'suspicious.                                                                     '
p20
aS'                                                                                '
p21
aS'*Open* Open Mail                                                                '
p22
aS'                                                                                '
p23
aS'*Inside* Go Inside                                                              '
p24
aS'                                                                                '
p25
aS'                                                                                '
p26
aS'                                                                                '
p27
aS'                                                                                '
p28
aS'                                                                                '
p29
aS'                                                                                '
p30
aS'                                                                                '
p31
aS'                                                                                '
p32
aa(lp33
S'#Inside#                                                                          '
p34
aS'                                                                                '
p35
aS'                                                                                '
p36
aS'You decide that it is too suspicious and you choose to go inside. Half way up   '
p37
aS'the drive you slip and fall head first on a rock.                               '
p38
aS'                                                                                '
p39
aS'No one knows what happened to your body. Did the writer of the letter take it?  '
p40
aS'                                                                                '
p41
aS'*The Red Letter* Try Again                                                      '
p42
aS'                                                                                '
p43
aS'                                                                                '
p44
aS'                                                                                '
p45
aS'                                                                                '
p46
aS'                                                                                '
p47
aS'                                                                                '
p48
aS'                                                                                '
p49
aS'                                                                                '
p50
aS'                                                                                '
p51
aS'                                                                                '
p52
aS'                                                                                '
p53
aa(lp54
S'#Open#                                                                            '
p55
aS'                                                                                '
p56
aS'                                                                                '
p57
aS'You are too curious not to answer your mail. So you grab it out of your mailbox '
p58
aS'and open it and find seven words.                                               '
p59
aS'                                                                                '
p60
aS'    --Meet me on the docks at twelve--                                          '
p61
aS'                                                                                '
p62
aS'You are not that sure whether to go or not because it seems like a stereotypical'
p63
aS'set up for a camp fire story.                                                   '
p64
aS'                                                                                '
p65
aS'*Dock* Drive up to the dock to find out who sent you the letter                 '
p66
aS'                                                                                '
p67
aS'                                                                                '
p68
aS'                                                                                '
p69
aS'                                                                                '
p70
aS'                                                                                '
p71
aS'                                                                                '
p72
aS'                                                                                '
p73
aS'                                                                                '
p74
aa(lp75
S'#Dock#                                                                            '
p76
aS'                                                                                '
p77
aS'                                                                                '
p78
aS'You decide to go down to the docks to confront the person who wrote the red     '
p79
aS'letter.                                                                         '
p80
aS'                                                                                '
p81
aS'Its a minute till noon, and there is no one there. Where is he? You think to    '
p82
aS'yourself, did he forget? Is it a prank?                                         '
p83
aS'                                                                                '
p84
aS'Then you hear a car rumble in the distance. A pair of bright yellow headlights  '
p85
aS'pop into existence and they are heading towards you and the noise is getting    '
p86
aS'louder.                                                                         '
p87
aS'                                                                                '
p88
aS'*Stand* Stand your ground                                                       '
p89
aS'                                                                                '
p90
aS'*Run* Run away as fast as you can                                               '
p91
aS'                                                                                '
p92
aS'                                                                                '
p93
aS'                                                                                '
p94
aS'                                                                                '
p95
aa(lp96
S'#Stand#                                                                           '
p97
aS'                                                                                '
p98
aS'                                                                                '
p99
aS'You decide to stand your ground. The car is getting dangerously close to you.   '
p100
aS'Five seconds feels like it has been an hour.                                    '
p101
aS'                                                                                '
p102
aS'The car is getting nearer and you are regretting your decision. You can now see '
p103
aS'the red hood of the car coming towards you.                                     '
p104
aS'                                                                                '
p105
aS'Just as you get ready for the numbing pain of the car hitting you it screeches  '
p106
aS'to a stop. A suited man comes out of the car and he is holding a hand gun. Where'
p107
aS' is the money? the man shouts at you.                                           '
p108
aS'                                                                                '
p109
aS'*Run* Run away                                                                  '
p110
aS'                                                                                '
p111
aS'                                                                                '
p112
aS'                                                                                '
p113
aS'                                                                                '
p114
aS'                                                                                '
p115
aS'                                                                                '
p116
aa(lp117
S'#Run#                                                                             '
p118
aS'                                                                                '
p119
aS'                                                                                '
p120
aS'You decide to run away. In the distance you hear a car. Its headlights are      '
p121
aS'getting closer. You take a left turn into a dark alleyway and end up behind a   '
p122
aS'small boat house. You see the car speed past you and you decide to flank it.    '
p123
aS'                                                                                '
p124
aS'You run onto the main road and lose it. It only took you ten minutes to find the'
p125
aS'police station nearest to you.                                                  '
p126
aS'                                                                                '
p127
aS'Once you arrive you quickly tell your story. Thirty minutes later the police    '
p128
aS'sergeant returns looking happy with himself. He tells you that you were thebait '
p129
aS'in a drug bust and now you are a key person in the crime of the year.           '
p130
aS'                                                                                '
p131
aS'Good Ending!                                                                    '
p132
aS'                                                                                '
p133
aS'*The Red Letter*                                                                '
p134
aS'                                                                                '
p135
aS'                                                                                '
p136
aS'                                                                                '
p137
aasb.